(dp0
S'Rainy Lake'
p1
ccopy_reg
_reconstructor
p2
(cnumpy.lib.polynomial
poly1d
p3
c__builtin__
object
p4
Ntp5
Rp6
(dp7
S'coeffs'
p8
cnumpy.core.multiarray
_reconstruct
p9
(cnumpy
ndarray
p10
(I0
tp11
S'b'
p12
tp13
Rp14
(I1
(I3
tp15
cnumpy
dtype
p16
(S'f8'
p17
I0
I1
tp18
Rp19
(I3
S'<'
p20
NNNI-1
I-1
I0
tp21
bI00
S'=J\x12%\xe9\xaeF@\xf8\x91g\x00\xfe\r\xdd\xc0\xed\x1b\xb3l}\x99RA'
p22
tp23
bsS'variable'
p24
S'x'
p25
sS'order'
p26
I2
sbsS'Namakan Reservoir'
p27
g2
(g3
g4
Ntp28
Rp29
(dp30
g8
g9
(g10
(I0
tp31
g12
tp32
Rp33
(I1
(I3
tp34
g19
I00
S'/\x8b\xc52\xddI$@\xfd>\xe0\xe0\x97\xfc\xb9\xc0d\xec(R{\xa10A'
p35
tp36
bsg24
g25
sg26
I2
sbs.